target datalayout = "e-m:e-p270:32:32-p271:32:32-p272:64:64-i64:64-i128:128-f80:128-n8:16:32:64-S128"
target triple = "x86_64-pc-linux-gnu"

%struct.ForEachState = type { ptr, i32 }
%struct.FunctionCallInfoBaseData = type { ptr, ptr, ptr, i32, i8, i16, [0 x %struct.NullableDatum] }
%struct.NullableDatum = type { i64, i8 }
%struct.List = type { i32, i32, i32, ptr, [0 x %union.ListCell] }
%union.ListCell = type { ptr }
%struct.DefElem = type { i32, ptr, ptr, ptr, i32, i32 }
%struct.DictSnowball = type { ptr, %struct.StopList, i8, ptr, ptr }
%struct.StopList = type { i32, ptr }
%struct.stemmer_module = type { ptr, i32, ptr, ptr, ptr }

@.str = private unnamed_addr constant [10 x i8] c"stopwords\00", align 1
@.str.1 = private unnamed_addr constant [30 x i8] c"multiple StopWords parameters\00", align 1
@.str.2 = private unnamed_addr constant [16 x i8] c"dict_snowball.c\00", align 1
@__func__.dsnowball_init = private unnamed_addr constant [15 x i8] c"dsnowball_init\00", align 1
@.str.3 = private unnamed_addr constant [9 x i8] c"language\00", align 1
@.str.4 = private unnamed_addr constant [29 x i8] c"multiple Language parameters\00", align 1
@.str.5 = private unnamed_addr constant [38 x i8] c"unrecognized Snowball parameter: \22%s\22\00", align 1
@.str.6 = private unnamed_addr constant [27 x i8] c"missing Language parameter\00", align 1
@CurrentMemoryContext = external global ptr, align 8
@.str.7 = private unnamed_addr constant [66 x i8] c"no Snowball stemmer available for language \22%s\22 and encoding \22%s\22\00", align 1
@__func__.locate_stem_module = private unnamed_addr constant [19 x i8] c"locate_stem_module\00", align 1

; Function Attrs: inlinehint nounwind uwtable
define internal i64 @PointerGetDatum(ptr noundef %0) #2 {
  %2 = alloca ptr, align 8
  store ptr %0, ptr %2, align 8
  %3 = load ptr, ptr %2, align 8
  %4 = ptrtoint ptr %3 to i64
  ret i64 %4
}

; Function Attrs: nounwind uwtable
define internal void @locate_stem_module(ptr noundef %0, ptr noundef %1) #0 {
  %3 = alloca ptr, align 8
  %4 = alloca ptr, align 8
  %5 = alloca ptr, align 8
  %6 = alloca i32, align 4
  store ptr %0, ptr %3, align 8
  store ptr %1, ptr %4, align 8
  call void @llvm.lifetime.start.p0(i64 8, ptr %5) #8
  store ptr @stemmer_modules, ptr %5, align 8
  br label %7

7:                                                ; preds = %45, %2
  %8 = load ptr, ptr %5, align 8
  %9 = getelementptr inbounds nuw %struct.stemmer_module, ptr %8, i32 0, i32 0
  %10 = load ptr, ptr %9, align 8
  %11 = icmp ne ptr %10, null
  br i1 %11, label %12, label %48

12:                                               ; preds = %7
  %13 = load ptr, ptr %5, align 8
  %14 = getelementptr inbounds nuw %struct.stemmer_module, ptr %13, i32 0, i32 1
  %15 = load i32, ptr %14, align 8
  %16 = icmp eq i32 %15, 0
  br i1 %16, label %23, label %17

17:                                               ; preds = %12
  %18 = load ptr, ptr %5, align 8
  %19 = getelementptr inbounds nuw %struct.stemmer_module, ptr %18, i32 0, i32 1
  %20 = load i32, ptr %19, align 8
  %21 = call i32 @GetDatabaseEncoding()
  %22 = icmp eq i32 %20, %21
  br i1 %22, label %23, label %44

23:                                               ; preds = %17, %12
  %24 = load ptr, ptr %5, align 8
  %25 = getelementptr inbounds nuw %struct.stemmer_module, ptr %24, i32 0, i32 0
  %26 = load ptr, ptr %25, align 8
  %27 = load ptr, ptr %4, align 8
  %28 = call i32 @pg_strcasecmp(ptr noundef %26, ptr noundef %27)
  %29 = icmp eq i32 %28, 0
  br i1 %29, label %30, label %44

30:                                               ; preds = %23
  %31 = load ptr, ptr %5, align 8
  %32 = getelementptr inbounds nuw %struct.stemmer_module, ptr %31, i32 0, i32 4
  %33 = load ptr, ptr %32, align 8
  %34 = load ptr, ptr %3, align 8
  %35 = getelementptr inbounds nuw %struct.DictSnowball, ptr %34, i32 0, i32 3
  store ptr %33, ptr %35, align 8
  %36 = load ptr, ptr %5, align 8
  %37 = getelementptr inbounds nuw %struct.stemmer_module, ptr %36, i32 0, i32 2
  %38 = load ptr, ptr %37, align 8
  %39 = call ptr %38()
  %40 = load ptr, ptr %3, align 8
  %41 = getelementptr inbounds nuw %struct.DictSnowball, ptr %40, i32 0, i32 0
  store ptr %39, ptr %41, align 8
  %42 = load ptr, ptr %3, align 8
  %43 = getelementptr inbounds nuw %struct.DictSnowball, ptr %42, i32 0, i32 2
  store i8 0, ptr %43, align 8
  store i32 1, ptr %6, align 4
  br label %98

44:                                               ; preds = %23, %17
  br label %45

45:                                               ; preds = %44
  %46 = load ptr, ptr %5, align 8
  %47 = getelementptr inbounds nuw %struct.stemmer_module, ptr %46, i32 1
  store ptr %47, ptr %5, align 8
  br label %7, !llvm.loop !7

48:                                               ; preds = %7
  store ptr @stemmer_modules, ptr %5, align 8
  br label %49

49:                                               ; preds = %81, %48
  %50 = load ptr, ptr %5, align 8
  %51 = getelementptr inbounds nuw %struct.stemmer_module, ptr %50, i32 0, i32 0
  %52 = load ptr, ptr %51, align 8
  %53 = icmp ne ptr %52, null
  br i1 %53, label %54, label %84

54:                                               ; preds = %49
  %55 = load ptr, ptr %5, align 8
  %56 = getelementptr inbounds nuw %struct.stemmer_module, ptr %55, i32 0, i32 1
  %57 = load i32, ptr %56, align 8
  %58 = icmp eq i32 %57, 6
  br i1 %58, label %59, label %80

59:                                               ; preds = %54
  %60 = load ptr, ptr %5, align 8
  %61 = getelementptr inbounds nuw %struct.stemmer_module, ptr %60, i32 0, i32 0
  %62 = load ptr, ptr %61, align 8
  %63 = load ptr, ptr %4, align 8
  %64 = call i32 @pg_strcasecmp(ptr noundef %62, ptr noundef %63)
  %65 = icmp eq i32 %64, 0
  br i1 %65, label %66, label %80

66:                                               ; preds = %59
  %67 = load ptr, ptr %5, align 8
  %68 = getelementptr inbounds nuw %struct.stemmer_module, ptr %67, i32 0, i32 4
  %69 = load ptr, ptr %68, align 8
  %70 = load ptr, ptr %3, align 8
  %71 = getelementptr inbounds nuw %struct.DictSnowball, ptr %70, i32 0, i32 3
  store ptr %69, ptr %71, align 8
  %72 = load ptr, ptr %5, align 8
  %73 = getelementptr inbounds nuw %struct.stemmer_module, ptr %72, i32 0, i32 2
  %74 = load ptr, ptr %73, align 8
  %75 = call ptr %74()
  %76 = load ptr, ptr %3, align 8
  %77 = getelementptr inbounds nuw %struct.DictSnowball, ptr %76, i32 0, i32 0
  store ptr %75, ptr %77, align 8
  %78 = load ptr, ptr %3, align 8
  %79 = getelementptr inbounds nuw %struct.DictSnowball, ptr %78, i32 0, i32 2
  store i8 1, ptr %79, align 8
  store i32 1, ptr %6, align 4
  br label %98

80:                                               ; preds = %59, %54
  br label %81

81:                                               ; preds = %80
  %82 = load ptr, ptr %5, align 8
  %83 = getelementptr inbounds nuw %struct.stemmer_module, ptr %82, i32 1
  store ptr %83, ptr %5, align 8
  br label %49, !llvm.loop !8

84:                                               ; preds = %49
  br label %85

85:                                               ; preds = %84
  br i1 true, label %86, label %88

86:                                               ; preds = %85
  %87 = call zeroext i1 @errstart_cold(i32 noundef 21, ptr noundef null) #10
  br i1 %87, label %90, label %95

88:                                               ; preds = %85
  %89 = call zeroext i1 @errstart(i32 noundef 21, ptr noundef null)
  br i1 %89, label %90, label %95

90:                                               ; preds = %88, %86
  %91 = call i32 @errcode(i32 noundef 67137668)
  %92 = load ptr, ptr %4, align 8
  %93 = call ptr @GetDatabaseEncodingName()
  %94 = call i32 (ptr, ...) @errmsg(ptr noundef @.str.7, ptr noundef %92, ptr noundef %93)
  call void @errfinish(ptr noundef @.str.2, i32 noundef 218, ptr noundef @__func__.locate_stem_module)
  br label %95

95:                                               ; preds = %90, %88, %86
  unreachable

96:                                               ; No predecessors!
  br label %97

97:                                               ; preds = %96
  store i32 0, ptr %6, align 4
  br label %98

98:                                               ; preds = %97, %66, %30
  call void @llvm.lifetime.end.p0(i64 8, ptr %5) #8
  %99 = load i32, ptr %6, align 4
  switch i32 %99, label %101 [
    i32 0, label %100
    i32 1, label %100
  ]

100:                                              ; preds = %98, %98
  ret void

101:                                              ; preds = %98
  unreachable
}

; Function Attrs: inlinehint nounwind uwtable
define internal ptr @DatumGetPointer(i64 noundef %0) #2 {
  %2 = alloca i64, align 8
  store i64 %0, ptr %2, align 8
  %3 = load i64, ptr %2, align 8
  %4 = inttoptr i64 %3 to ptr
  ret ptr %4
}

; Function Attrs: nounwind uwtable
define i64 @dsnowball_init(ptr noundef %0) #0 {
  %2 = alloca ptr, align 8
  %3 = alloca ptr, align 8
  %4 = alloca ptr, align 8
  %5 = alloca i8, align 1
  %6 = alloca ptr, align 8
  %7 = alloca %struct.ForEachState, align 8
  %8 = alloca ptr, align 8
  store ptr %0, ptr %2, align 8
  call void @llvm.lifetime.start.p0(i64 8, ptr %3) #8
  %9 = load ptr, ptr %2, align 8
  %10 = getelementptr inbounds nuw %struct.FunctionCallInfoBaseData, ptr %9, i32 0, i32 6
  %11 = getelementptr inbounds [0 x %struct.NullableDatum], ptr %10, i64 0, i64 0
  %12 = getelementptr inbounds nuw %struct.NullableDatum, ptr %11, i32 0, i32 0
  %13 = load i64, ptr %12, align 8
  %14 = call ptr @DatumGetPointer(i64 noundef %13)
  store ptr %14, ptr %3, align 8
  call void @llvm.lifetime.start.p0(i64 8, ptr %4) #8
  call void @llvm.lifetime.start.p0(i64 1, ptr %5) #8
  store i8 0, ptr %5, align 1
  call void @llvm.lifetime.start.p0(i64 8, ptr %6) #8
  %15 = call ptr @palloc0(i64 noundef 48)
  store ptr %15, ptr %4, align 8
  call void @llvm.lifetime.start.p0(i64 16, ptr %7) #8
  %16 = getelementptr inbounds nuw %struct.ForEachState, ptr %7, i32 0, i32 0
  %17 = load ptr, ptr %3, align 8
  store ptr %17, ptr %16, align 8
  %18 = getelementptr inbounds nuw %struct.ForEachState, ptr %7, i32 0, i32 1
  store i32 0, ptr %18, align 8
  %19 = getelementptr i8, ptr %7, i64 12
  call void @llvm.memset.p0.i64(ptr align 4 %19, i8 0, i64 4, i1 false)
  br label %20

20:                                               ; preds = %118, %1
  %21 = getelementptr inbounds nuw %struct.ForEachState, ptr %7, i32 0, i32 0
  %22 = load ptr, ptr %21, align 8
  %23 = icmp ne ptr %22, null
  br i1 %23, label %24, label %41

24:                                               ; preds = %20
  %25 = getelementptr inbounds nuw %struct.ForEachState, ptr %7, i32 0, i32 1
  %26 = load i32, ptr %25, align 8
  %27 = getelementptr inbounds nuw %struct.ForEachState, ptr %7, i32 0, i32 0
  %28 = load ptr, ptr %27, align 8
  %29 = getelementptr inbounds nuw %struct.List, ptr %28, i32 0, i32 1
  %30 = load i32, ptr %29, align 4
  %31 = icmp slt i32 %26, %30
  br i1 %31, label %32, label %41

32:                                               ; preds = %24
  %33 = getelementptr inbounds nuw %struct.ForEachState, ptr %7, i32 0, i32 0
  %34 = load ptr, ptr %33, align 8
  %35 = getelementptr inbounds nuw %struct.List, ptr %34, i32 0, i32 3
  %36 = load ptr, ptr %35, align 8
  %37 = getelementptr inbounds nuw %struct.ForEachState, ptr %7, i32 0, i32 1
  %38 = load i32, ptr %37, align 8
  %39 = sext i32 %38 to i64
  %40 = getelementptr inbounds %union.ListCell, ptr %36, i64 %39
  store ptr %40, ptr %6, align 8
  br label %42

41:                                               ; preds = %24, %20
  store ptr null, ptr %6, align 8
  br label %42

42:                                               ; preds = %41, %32
  %43 = phi i32 [ 1, %32 ], [ 0, %41 ]
  %44 = icmp ne i32 %43, 0
  br i1 %44, label %46, label %45

45:                                               ; preds = %42
  call void @llvm.lifetime.end.p0(i64 16, ptr %7) #8
  br label %122

46:                                               ; preds = %42
  call void @llvm.lifetime.start.p0(i64 8, ptr %8) #8
  %47 = load ptr, ptr %6, align 8
  %48 = load ptr, ptr %47, align 8
  store ptr %48, ptr %8, align 8
  %49 = load ptr, ptr %8, align 8
  %50 = getelementptr inbounds nuw %struct.DefElem, ptr %49, i32 0, i32 2
  %51 = load ptr, ptr %50, align 8
  %52 = call i32 @strcmp(ptr noundef %51, ptr noundef @.str) #9
  %53 = icmp eq i32 %52, 0
  br i1 %53, label %54, label %74

54:                                               ; preds = %46
  %55 = load i8, ptr %5, align 1, !range !3, !noundef !4
  %56 = trunc i8 %55 to i1
  br i1 %56, label %57, label %69

57:                                               ; preds = %54
  br label %58

58:                                               ; preds = %57
  br i1 true, label %59, label %61

59:                                               ; preds = %58
  %60 = call zeroext i1 @errstart_cold(i32 noundef 21, ptr noundef null) #10
  br i1 %60, label %63, label %66

61:                                               ; preds = %58
  %62 = call zeroext i1 @errstart(i32 noundef 21, ptr noundef null)
  br i1 %62, label %63, label %66

63:                                               ; preds = %61, %59
  %64 = call i32 @errcode(i32 noundef 50856066)
  %65 = call i32 (ptr, ...) @errmsg(ptr noundef @.str.1)
  call void @errfinish(ptr noundef @.str.2, i32 noundef 240, ptr noundef @__func__.dsnowball_init)
  br label %66

66:                                               ; preds = %63, %61, %59
  unreachable

67:                                               ; No predecessors!
  br label %68

68:                                               ; preds = %67
  br label %69

69:                                               ; preds = %68, %54
  %70 = load ptr, ptr %8, align 8
  %71 = call ptr @defGetString(ptr noundef %70)
  %72 = load ptr, ptr %4, align 8
  %73 = getelementptr inbounds nuw %struct.DictSnowball, ptr %72, i32 0, i32 1
  call void @readstoplist(ptr noundef %71, ptr noundef %73, ptr noundef @str_tolower)
  store i8 1, ptr %5, align 1
  br label %117

74:                                               ; preds = %46
  %75 = load ptr, ptr %8, align 8
  %76 = getelementptr inbounds nuw %struct.DefElem, ptr %75, i32 0, i32 2
  %77 = load ptr, ptr %76, align 8
  %78 = call i32 @strcmp(ptr noundef %77, ptr noundef @.str.3) #9
  %79 = icmp eq i32 %78, 0
  br i1 %79, label %80, label %101

80:                                               ; preds = %74
  %81 = load ptr, ptr %4, align 8
  %82 = getelementptr inbounds nuw %struct.DictSnowball, ptr %81, i32 0, i32 3
  %83 = load ptr, ptr %82, align 8
  %84 = icmp ne ptr %83, null
  br i1 %84, label %85, label %97

85:                                               ; preds = %80
  br label %86

86:                                               ; preds = %85
  br i1 true, label %87, label %89

87:                                               ; preds = %86
  %88 = call zeroext i1 @errstart_cold(i32 noundef 21, ptr noundef null) #10
  br i1 %88, label %91, label %94

89:                                               ; preds = %86
  %90 = call zeroext i1 @errstart(i32 noundef 21, ptr noundef null)
  br i1 %90, label %91, label %94

91:                                               ; preds = %89, %87
  %92 = call i32 @errcode(i32 noundef 50856066)
  %93 = call i32 (ptr, ...) @errmsg(ptr noundef @.str.4)
  call void @errfinish(ptr noundef @.str.2, i32 noundef 249, ptr noundef @__func__.dsnowball_init)
  br label %94

94:                                               ; preds = %91, %89, %87
  unreachable

95:                                               ; No predecessors!
  br label %96

96:                                               ; preds = %95
  br label %97

97:                                               ; preds = %96, %80
  %98 = load ptr, ptr %4, align 8
  %99 = load ptr, ptr %8, align 8
  %100 = call ptr @defGetString(ptr noundef %99)
  call void @locate_stem_module(ptr noundef %98, ptr noundef %100)
  br label %116

101:                                              ; preds = %74
  br label %102

102:                                              ; preds = %101
  br i1 true, label %103, label %105

103:                                              ; preds = %102
  %104 = call zeroext i1 @errstart_cold(i32 noundef 21, ptr noundef null) #10
  br i1 %104, label %107, label %113

105:                                              ; preds = %102
  %106 = call zeroext i1 @errstart(i32 noundef 21, ptr noundef null)
  br i1 %106, label %107, label %113

107:                                              ; preds = %105, %103
  %108 = call i32 @errcode(i32 noundef 50856066)
  %109 = load ptr, ptr %8, align 8
  %110 = getelementptr inbounds nuw %struct.DefElem, ptr %109, i32 0, i32 2
  %111 = load ptr, ptr %110, align 8
  %112 = call i32 (ptr, ...) @errmsg(ptr noundef @.str.5, ptr noundef %111)
  call void @errfinish(ptr noundef @.str.2, i32 noundef 257, ptr noundef @__func__.dsnowball_init)
  br label %113

113:                                              ; preds = %107, %105, %103
  unreachable

114:                                              ; No predecessors!
  br label %115

115:                                              ; preds = %114
  br label %116

116:                                              ; preds = %115, %97
  br label %117

117:                                              ; preds = %116, %69
  call void @llvm.lifetime.end.p0(i64 8, ptr %8) #8
  br label %118

118:                                              ; preds = %117
  %119 = getelementptr inbounds nuw %struct.ForEachState, ptr %7, i32 0, i32 1
  %120 = load i32, ptr %119, align 8
  %121 = add i32 %120, 1
  store i32 %121, ptr %119, align 8
  br label %20, !llvm.loop !5

122:                                              ; preds = %45
  %123 = load ptr, ptr %4, align 8
  %124 = getelementptr inbounds nuw %struct.DictSnowball, ptr %123, i32 0, i32 3
  %125 = load ptr, ptr %124, align 8
  %126 = icmp ne ptr %125, null
  br i1 %126, label %139, label %127

127:                                              ; preds = %122
  br label %128

128:                                              ; preds = %127
  br i1 true, label %129, label %131

129:                                              ; preds = %128
  %130 = call zeroext i1 @errstart_cold(i32 noundef 21, ptr noundef null) #10
  br i1 %130, label %133, label %136

131:                                              ; preds = %128
  %132 = call zeroext i1 @errstart(i32 noundef 21, ptr noundef null)
  br i1 %132, label %133, label %136

133:                                              ; preds = %131, %129
  %134 = call i32 @errcode(i32 noundef 50856066)
  %135 = call i32 (ptr, ...) @errmsg(ptr noundef @.str.6)
  call void @errfinish(ptr noundef @.str.2, i32 noundef 264, ptr noundef @__func__.dsnowball_init)
  br label %136

136:                                              ; preds = %133, %131, %129
  unreachable

137:                                              ; No predecessors!
  br label %138

138:                                              ; preds = %137
  br label %139

139:                                              ; preds = %138, %122
  %140 = load ptr, ptr @CurrentMemoryContext, align 8
  %141 = load ptr, ptr %4, align 8
  %142 = getelementptr inbounds nuw %struct.DictSnowball, ptr %141, i32 0, i32 4
  store ptr %140, ptr %142, align 8
  %143 = load ptr, ptr %4, align 8
  %144 = call i64 @PointerGetDatum(ptr noundef %143)
  call void @llvm.lifetime.end.p0(i64 8, ptr %6) #8
  call void @llvm.lifetime.end.p0(i64 1, ptr %5) #8
  call void @llvm.lifetime.end.p0(i64 8, ptr %4) #8
  call void @llvm.lifetime.end.p0(i64 8, ptr %3) #8
  ret i64 %144
}