; Function Attrs: nounwind uwtable
define i64 @dsnowball_init(ptr noundef readonly captures(none) %0) local_unnamed_addr #1 {
  %2 = getelementptr inbounds nuw i8, ptr %0, i64 32
  %3 = load i64, ptr %2, align 8
  %4 = tail call ptr @palloc0(i64 noundef 48) #7
  %.not = icmp eq i64 %3, 0
  br i1 %.not, label %._crit_edge, label %.lr.ph

.lr.ph:                                           ; preds = %1
  %5 = inttoptr i64 %3 to ptr
  %6 = getelementptr inbounds nuw i8, ptr %5, i64 4
  %7 = getelementptr inbounds nuw i8, ptr %5, i64 16
  %8 = getelementptr inbounds nuw i8, ptr %4, i64 32
  %9 = getelementptr inbounds nuw i8, ptr %4, i64 24
  %10 = getelementptr inbounds nuw i8, ptr %4, i64 8
  %11 = load i32, ptr %6, align 4
  %12 = icmp sgt i32 %11, 0
  br i1 %12, label %.lr.ph60, label %._crit_edge

._crit_edge:                                      ; preds = %80, %.lr.ph, %1
  %13 = getelementptr inbounds nuw i8, ptr %4, i64 32
  %14 = load ptr, ptr %13, align 8
  %.not21 = icmp eq ptr %14, null
  br i1 %.not21, label %84, label %88

.lr.ph60:                                         ; preds = %.lr.ph, %80
  %.03459 = phi i1 [ %.1, %80 ], [ false, %.lr.ph ]
  %indvars.iv58 = phi i64 [ %indvars.iv.next, %80 ], [ 0, %.lr.ph ]
  %15 = load ptr, ptr %7, align 8
  %16 = getelementptr inbounds nuw %union.ListCell, ptr %15, i64 %indvars.iv58
  %17 = load ptr, ptr %16, align 8
  %18 = getelementptr inbounds nuw i8, ptr %17, i64 16
  %19 = load ptr, ptr %18, align 8
  %20 = tail call i32 @strcmp(ptr noundef nonnull dereferenceable(1) %19, ptr noundef nonnull dereferenceable(10) @.str) #8
  %21 = icmp eq i32 %20, 0
  br i1 %21, label %22, label %29

22:                                               ; preds = %.lr.ph60
  br i1 %.03459, label %23, label %27

23:                                               ; preds = %22
  %24 = tail call zeroext i1 @errstart_cold(i32 noundef 21, ptr noundef null) #9
  tail call void @llvm.assume(i1 %24)
  %25 = tail call i32 @errcode(i32 noundef 50856066) #7
  %26 = tail call i32 (ptr, ...) @errmsg(ptr noundef nonnull @.str.1) #7
  tail call void @errfinish(ptr noundef nonnull @.str.2, i32 noundef 240, ptr noundef nonnull @__func__.dsnowball_init) #7
  unreachable

27:                                               ; preds = %22
  %28 = tail call ptr @defGetString(ptr noundef nonnull %17) #7
  tail call void @readstoplist(ptr noundef %28, ptr noundef nonnull %10, ptr noundef nonnull @str_tolower) #7
  br label %80

29:                                               ; preds = %.lr.ph60
  %30 = tail call i32 @strcmp(ptr noundef nonnull dereferenceable(1) %19, ptr noundef nonnull dereferenceable(9) @.str.3) #8
  %31 = icmp eq i32 %30, 0
  br i1 %31, label %32, label %74

32:                                               ; preds = %29
  %33 = load ptr, ptr %8, align 8
  %.not22 = icmp eq ptr %33, null
  br i1 %.not22, label %38, label %34

34:                                               ; preds = %32
  %35 = tail call zeroext i1 @errstart_cold(i32 noundef 21, ptr noundef null) #9
  tail call void @llvm.assume(i1 %35)
  %36 = tail call i32 @errcode(i32 noundef 50856066) #7
  %37 = tail call i32 (ptr, ...) @errmsg(ptr noundef nonnull @.str.4) #7
  tail call void @errfinish(ptr noundef nonnull @.str.2, i32 noundef 249, ptr noundef nonnull @__func__.dsnowball_init) #7
  unreachable

38:                                               ; preds = %32
  %39 = tail call ptr @defGetString(ptr noundef nonnull %17) #7
  br label %40

40:                                               ; preds = %51, %38
  %41 = phi ptr [ @.str.8, %38 ], [ %53, %51 ]
  %.027.i = phi ptr [ @stemmer_modules, %38 ], [ %52, %51 ]
  %42 = getelementptr inbounds nuw i8, ptr %.027.i, i64 8
  %43 = load i32, ptr %42, align 8
  %44 = icmp eq i32 %43, 0
  br i1 %44, label %48, label %45

45:                                               ; preds = %40
  %46 = tail call i32 @GetDatabaseEncoding() #7
  %47 = icmp eq i32 %43, %46
  br i1 %47, label %48, label %51

48:                                               ; preds = %45, %40
  %49 = tail call i32 @pg_strcasecmp(ptr noundef nonnull %41, ptr noundef %39) #7
  %50 = icmp eq i32 %49, 0
  br i1 %50, label %locate_stem_module.exit, label %51

51:                                               ; preds = %48, %45
  %52 = getelementptr inbounds nuw i8, ptr %.027.i, i64 40
  %53 = load ptr, ptr %52, align 8
  %.not.i = icmp eq ptr %53, null
  br i1 %.not.i, label %.preheader.i, label %40, !llvm.loop !3

.preheader.i:                                     ; preds = %51, %61
  %54 = phi ptr [ %63, %61 ], [ @.str.8, %51 ]
  %.128.i = phi ptr [ %62, %61 ], [ @stemmer_modules, %51 ]
  %55 = getelementptr inbounds nuw i8, ptr %.128.i, i64 8
  %56 = load i32, ptr %55, align 8
  %57 = icmp eq i32 %56, 6
  br i1 %57, label %58, label %61

58:                                               ; preds = %.preheader.i
  %59 = tail call i32 @pg_strcasecmp(ptr noundef nonnull %54, ptr noundef %39) #7
  %60 = icmp eq i32 %59, 0
  br i1 %60, label %locate_stem_module.exit, label %61

61:                                               ; preds = %58, %.preheader.i
  %62 = getelementptr inbounds nuw i8, ptr %.128.i, i64 40
  %63 = load ptr, ptr %62, align 8
  %.not24.i = icmp eq ptr %63, null
  br i1 %.not24.i, label %64, label %.preheader.i, !llvm.loop !5

64:                                               ; preds = %61
  %65 = tail call zeroext i1 @errstart_cold(i32 noundef 21, ptr noundef null) #9
  tail call void @llvm.assume(i1 %65)
  %66 = tail call i32 @errcode(i32 noundef 67137668) #7
  %67 = tail call ptr @GetDatabaseEncodingName() #7
  %68 = tail call i32 (ptr, ...) @errmsg(ptr noundef nonnull @.str.7, ptr noundef %39, ptr noundef %67) #7
  tail call void @errfinish(ptr noundef nonnull @.str.2, i32 noundef 218, ptr noundef nonnull @__func__.locate_stem_module) #7
  unreachable

locate_stem_module.exit:                          ; preds = %48, %58
  %.128.lcssa.sink40.i = phi ptr [ %.128.i, %58 ], [ %.027.i, %48 ]
  %.sink.i = phi i8 [ 1, %58 ], [ 0, %48 ]
  %69 = getelementptr inbounds nuw i8, ptr %.128.lcssa.sink40.i, i64 32
  %70 = load ptr, ptr %69, align 8
  store ptr %70, ptr %8, align 8
  %71 = getelementptr inbounds nuw i8, ptr %.128.lcssa.sink40.i, i64 16
  %72 = load ptr, ptr %71, align 8
  %73 = tail call ptr %72() #7
  store ptr %73, ptr %4, align 8
  store i8 %.sink.i, ptr %9, align 8
  br label %80

74:                                               ; preds = %29
  %75 = getelementptr inbounds nuw i8, ptr %17, i64 16
  %76 = tail call zeroext i1 @errstart_cold(i32 noundef 21, ptr noundef null) #9
  tail call void @llvm.assume(i1 %76)
  %77 = tail call i32 @errcode(i32 noundef 50856066) #7
  %78 = load ptr, ptr %75, align 8
  %79 = tail call i32 (ptr, ...) @errmsg(ptr noundef nonnull @.str.5, ptr noundef %78) #7
  tail call void @errfinish(ptr noundef nonnull @.str.2, i32 noundef 257, ptr noundef nonnull @__func__.dsnowball_init) #7
  unreachable

80:                                               ; preds = %locate_stem_module.exit, %27
  %.1 = phi i1 [ true, %27 ], [ %.03459, %locate_stem_module.exit ]
  %indvars.iv.next = add nuw nsw i64 %indvars.iv58, 1
  %81 = load i32, ptr %6, align 4
  %82 = sext i32 %81 to i64
  %83 = icmp slt i64 %indvars.iv.next, %82
  br i1 %83, label %.lr.ph60, label %._crit_edge

84:                                               ; preds = %._crit_edge
  %85 = tail call zeroext i1 @errstart_cold(i32 noundef 21, ptr noundef null) #9
  tail call void @llvm.assume(i1 %85)
  %86 = tail call i32 @errcode(i32 noundef 50856066) #7
  %87 = tail call i32 (ptr, ...) @errmsg(ptr noundef nonnull @.str.6) #7
  tail call void @errfinish(ptr noundef nonnull @.str.2, i32 noundef 264, ptr noundef nonnull @__func__.dsnowball_init) #7
  unreachable

88:                                               ; preds = %._crit_edge
  %89 = load ptr, ptr @CurrentMemoryContext, align 8
  %90 = getelementptr inbounds nuw i8, ptr %4, i64 40
  store ptr %89, ptr %90, align 8
  %91 = ptrtoint ptr %4 to i64
  ret i64 %91
}